target datalayout = "e-m:e-p270:32:32-p271:32:32-p272:64:64-i64:64-i128:128-f80:128-n8:16:32:64-S128"
target triple = "x86_64-pc-linux-gnu"

@onig_inited = internal global i32 0, align 4

; Function Attrs: nounwind sspstrong uwtable
define dso_local i32 @onig_init() #0 {
  %1 = alloca i32, align 4
  %2 = load i32, ptr @onig_inited, align 4, !tbaa !7
  %3 = icmp ne i32 %2, 0
  br i1 %3, label %4, label %5

4:                                                ; preds = %0
  store i32 0, ptr %1, align 4
  br label %7

5:                                                ; preds = %0
  store i32 1, ptr @onig_inited, align 4, !tbaa !7
  %6 = call i32 @onigenc_init()
  store i32 0, ptr %1, align 4
  br label %7

7:                                                ; preds = %5, %4
  %8 = load i32, ptr %1, align 4
  ret i32 %8
}

; Function Attrs: nounwind sspstrong uwtable
define dso_local i32 @onig_initialize(ptr noundef %0, i32 noundef %1) #0 {
  %3 = alloca ptr, align 8
  %4 = alloca i32, align 4
  store ptr %0, ptr %3, align 8, !tbaa !177
  store i32 %1, ptr %4, align 4, !tbaa !7
  %5 = call i32 @onig_init()
  ret i32 %5
}