; Function Attrs: nounwind sspstrong uwtable
define dso_local noundef i32 @onig_initialize(ptr noundef readnone captures(none) %0, i32 noundef %1) local_unnamed_addr #4 {
  %.b.i = load i1, ptr @onig_inited, align 4
  br i1 %.b.i, label %onig_init.exit, label %3

3:                                                ; preds = %2
  store i1 true, ptr @onig_inited, align 4
  %4 = tail call i32 @onigenc_init() #20
  br label %onig_init.exit

onig_init.exit:                                   ; preds = %2, %3
  ret i32 0
}